target datalayout = "e-m:e-p270:32:32-p271:32:32-p272:64:64-i64:64-i128:128-f80:128-n8:16:32:64-S128"
target triple = "x86_64-unknown-linux-gnu"

; Function Attrs: nounwind sspstrong uwtable
define internal void @g_autoptr_cleanup_gstring_free(ptr noundef %string) #0 {
entry:
  %string.addr = alloca ptr, align 8
  store ptr %string, ptr %string.addr, align 8
  %0 = load ptr, ptr %string.addr, align 8
  %tobool = icmp ne ptr %0, null
  br i1 %tobool, label %if.then, label %if.end

if.then:                                          ; preds = %entry
  %1 = load ptr, ptr %string.addr, align 8
  %call = call ptr @g_string_free(ptr noundef %1, i32 noundef 1)
  br label %if.end

if.end:                                           ; preds = %if.then, %entry
  ret void
}

; Function Attrs: nounwind sspstrong uwtable
define internal void @glib_autoptr_clear_GString(ptr noundef %_ptr) #0 {
entry:
  %_ptr.addr = alloca ptr, align 8
  store ptr %_ptr, ptr %_ptr.addr, align 8
  %0 = load ptr, ptr %_ptr.addr, align 8
  %tobool = icmp ne ptr %0, null
  br i1 %tobool, label %if.then, label %if.end

if.then:                                          ; preds = %entry
  %1 = load ptr, ptr %_ptr.addr, align 8
  call void @g_autoptr_cleanup_gstring_free(ptr noundef %1)
  br label %if.end

if.end:                                           ; preds = %if.then, %entry
  ret void
}

; Function Attrs: nounwind sspstrong uwtable
define internal void @glib_autoptr_cleanup_GString(ptr noundef %_ptr) #0 {
entry:
  %_ptr.addr = alloca ptr, align 8
  store ptr %_ptr, ptr %_ptr.addr, align 8
  %0 = load ptr, ptr %_ptr.addr, align 8
  %1 = load ptr, ptr %0, align 8
  call void @glib_autoptr_clear_GString(ptr noundef %1)
  ret void
}

; Function Attrs: nounwind sspstrong uwtable
define dso_local ptr @qmp_x_query_ramblock(ptr noundef %errp) #0 {
entry:
  %errp.addr = alloca ptr, align 8
  %buf = alloca ptr, align 8
  store ptr %errp, ptr %errp.addr, align 8
  %call = call ptr @ram_block_format()
  store ptr %call, ptr %buf, align 8
  %0 = load ptr, ptr %buf, align 8
  %call1 = call ptr @human_readable_text_from_str(ptr noundef %0)
  call void @glib_autoptr_cleanup_GString(ptr noundef %buf)
  ret ptr %call1
}