; Function Attrs: nounwind sspstrong uwtable
define dso_local ptr @qmp_x_query_ramblock(ptr noundef readnone captures(none) %errp) local_unnamed_addr #0 {
entry:
  %call = tail call ptr @ram_block_format() #7
  %call1 = tail call ptr @human_readable_text_from_str(ptr noundef %call) #7
  %tobool.not.i.i = icmp eq ptr %call, null
  br i1 %tobool.not.i.i, label %glib_autoptr_cleanup_GString.exit, label %if.then.i.i

if.then.i.i:                                      ; preds = %entry
  %call.i.i.i = tail call ptr @g_string_free(ptr noundef nonnull %call, i32 noundef 1) #7
  br label %glib_autoptr_cleanup_GString.exit

glib_autoptr_cleanup_GString.exit:                ; preds = %entry, %if.then.i.i
  ret ptr %call1
}